target datalayout = "e-m:e-p270:32:32-p271:32:32-p272:64:64-i64:64-i128:128-f80:128-n8:16:32:64-S128"
target triple = "x86_64-pc-linux-gnu"

; Function Attrs: nounwind uwtable
define ptr @Fraig_NodeOr(ptr noundef %0, ptr noundef %1, ptr noundef %2) #0 {
  %4 = alloca ptr, align 8
  %5 = alloca ptr, align 8
  %6 = alloca ptr, align 8
  store ptr %0, ptr %4, align 8, !tbaa !3
  store ptr %1, ptr %5, align 8, !tbaa !30
  store ptr %2, ptr %6, align 8, !tbaa !30
  %7 = load ptr, ptr %4, align 8, !tbaa !3
  %8 = load ptr, ptr %5, align 8, !tbaa !30
  %9 = ptrtoint ptr %8 to i64
  %10 = xor i64 %9, 1
  %11 = inttoptr i64 %10 to ptr
  %12 = load ptr, ptr %6, align 8, !tbaa !30
  %13 = ptrtoint ptr %12 to i64
  %14 = xor i64 %13, 1
  %15 = inttoptr i64 %14 to ptr
  %16 = call ptr @Fraig_NodeAndCanon(ptr noundef %7, ptr noundef %11, ptr noundef %15)
  %17 = ptrtoint ptr %16 to i64
  %18 = xor i64 %17, 1
  %19 = inttoptr i64 %18 to ptr
  ret ptr %19
}

; Function Attrs: nounwind uwtable
define ptr @Fraig_NodeMux(ptr noundef %0, ptr noundef %1, ptr noundef %2, ptr noundef %3) #0 {
  %5 = alloca ptr, align 8
  %6 = alloca ptr, align 8
  %7 = alloca ptr, align 8
  %8 = alloca ptr, align 8
  %9 = alloca ptr, align 8
  %10 = alloca ptr, align 8
  %11 = alloca ptr, align 8
  store ptr %0, ptr %5, align 8, !tbaa !3
  store ptr %1, ptr %6, align 8, !tbaa !30
  store ptr %2, ptr %7, align 8, !tbaa !30
  store ptr %3, ptr %8, align 8, !tbaa !30
  call void @llvm.lifetime.start.p0(i64 8, ptr %9) #3
  call void @llvm.lifetime.start.p0(i64 8, ptr %10) #3
  call void @llvm.lifetime.start.p0(i64 8, ptr %11) #3
  %12 = load ptr, ptr %5, align 8, !tbaa !3
  %13 = load ptr, ptr %6, align 8, !tbaa !30
  %14 = load ptr, ptr %7, align 8, !tbaa !30
  %15 = call ptr @Fraig_NodeAndCanon(ptr noundef %12, ptr noundef %13, ptr noundef %14)
  store ptr %15, ptr %9, align 8, !tbaa !30
  %16 = load ptr, ptr %5, align 8, !tbaa !3
  %17 = load ptr, ptr %6, align 8, !tbaa !30
  %18 = ptrtoint ptr %17 to i64
  %19 = xor i64 %18, 1
  %20 = inttoptr i64 %19 to ptr
  %21 = load ptr, ptr %8, align 8, !tbaa !30
  %22 = call ptr @Fraig_NodeAndCanon(ptr noundef %16, ptr noundef %20, ptr noundef %21)
  store ptr %22, ptr %10, align 8, !tbaa !30
  %23 = load ptr, ptr %5, align 8, !tbaa !3
  %24 = load ptr, ptr %9, align 8, !tbaa !30
  %25 = load ptr, ptr %10, align 8, !tbaa !30
  %26 = call ptr @Fraig_NodeOr(ptr noundef %23, ptr noundef %24, ptr noundef %25)
  store ptr %26, ptr %11, align 8, !tbaa !30
  %27 = load ptr, ptr %11, align 8, !tbaa !30
  call void @llvm.lifetime.end.p0(i64 8, ptr %11) #3
  call void @llvm.lifetime.end.p0(i64 8, ptr %10) #3
  call void @llvm.lifetime.end.p0(i64 8, ptr %9) #3
  ret ptr %27
}

; Function Attrs: nounwind uwtable
define ptr @Fraig_NodeExor(ptr noundef %0, ptr noundef %1, ptr noundef %2) #0 {
  %4 = alloca ptr, align 8
  %5 = alloca ptr, align 8
  %6 = alloca ptr, align 8
  store ptr %0, ptr %4, align 8, !tbaa !3
  store ptr %1, ptr %5, align 8, !tbaa !30
  store ptr %2, ptr %6, align 8, !tbaa !30
  %7 = load ptr, ptr %4, align 8, !tbaa !3
  %8 = load ptr, ptr %5, align 8, !tbaa !30
  %9 = load ptr, ptr %6, align 8, !tbaa !30
  %10 = ptrtoint ptr %9 to i64
  %11 = xor i64 %10, 1
  %12 = inttoptr i64 %11 to ptr
  %13 = load ptr, ptr %6, align 8, !tbaa !30
  %14 = call ptr @Fraig_NodeMux(ptr noundef %7, ptr noundef %8, ptr noundef %12, ptr noundef %13)
  ret ptr %14
}