; Function Attrs: nounwind uwtable
define ptr @Fraig_NodeExor(ptr noundef %0, ptr noundef %1, ptr noundef %2) local_unnamed_addr #2 {
  %4 = ptrtoint ptr %2 to i64
  %5 = xor i64 %4, 1
  %6 = inttoptr i64 %5 to ptr
  %7 = tail call ptr @Fraig_NodeAndCanon(ptr noundef %0, ptr noundef %1, ptr noundef %6) #7
  %8 = ptrtoint ptr %1 to i64
  %9 = xor i64 %8, 1
  %10 = inttoptr i64 %9 to ptr
  %11 = tail call ptr @Fraig_NodeAndCanon(ptr noundef %0, ptr noundef %10, ptr noundef %2) #7
  %12 = ptrtoint ptr %7 to i64
  %13 = xor i64 %12, 1
  %14 = inttoptr i64 %13 to ptr
  %15 = ptrtoint ptr %11 to i64
  %16 = xor i64 %15, 1
  %17 = inttoptr i64 %16 to ptr
  %18 = tail call ptr @Fraig_NodeAndCanon(ptr noundef %0, ptr noundef %14, ptr noundef %17) #7
  %19 = ptrtoint ptr %18 to i64
  %20 = xor i64 %19, 1
  %21 = inttoptr i64 %20 to ptr
  ret ptr %21
}